(dp1
S'files'
p2
(dp3
S'apps_meetup_admin'
p4
(dp5
S'index'
p6
(dp7
S'html_filename'
p8
S'apps_meetup_admin.html'
p9
sS'name'
p10
S'apps/meetup/admin'
p11
sS'nums'
p12
ccopy_reg
_reconstructor
p13
(ccoverage.results
Numbers
p14
c__builtin__
object
p15
NtRp16
(dp17
S'n_files'
p18
I1
sS'n_branches'
p19
I0
sS'n_statements'
p20
I6
sS'n_excluded'
p21
I0
sS'n_partial_branches'
p22
I0
sS'n_missing'
p23
I0
sS'n_missing_branches'
p24
I0
sbssS'hash'
p25
S'"=J\xcd\xf5\x1a\xb1\x9c\xa3m\xc6\xbb\xb4\x8e\xc7\xd9'
p26
ssS'apps_events_models'
p27
(dp28
g6
(dp29
g8
S'apps_events_models.html'
p30
sg10
S'apps/events/models'
p31
sg12
g13
(g14
g15
NtRp32
(dp33
g18
I1
sg19
I0
sg20
I1
sg21
I0
sg22
I0
sg23
I0
sg24
I0
sbssg25
S'\xe2\x04\xfa\xf5X\x90;N<\xb2\x14gl\x9d\xac\xbd'
p34
ssS'apps_contact_views'
p35
(dp36
g6
(dp37
g8
S'apps_contact_views.html'
p38
sg10
S'apps/contact/views'
p39
sg12
g13
(g14
g15
NtRp40
(dp41
g18
I1
sg19
I0
sg20
I19
sg21
I0
sg22
I0
sg23
I12
sg24
I0
sbssg25
S'\xb8\xa2\x91\x12\x94a9TI\x845\xe7\x91\xfa\xb5W'
p42
ssS'apps_meetup_search_sites'
p43
(dp44
g6
(dp45
g8
S'apps_meetup_search_sites.html'
p46
sg10
S'apps/meetup/search_sites'
p47
sg12
g13
(g14
g15
NtRp48
(dp49
g18
I1
sg19
I0
sg20
I3
sg21
I0
sg22
I0
sg23
I3
sg24
I0
sbssg25
S'\xf9(o\x04\xf4x\x0f\x0b!\x95\x15I\x92x\xd9\xd2'
p50
ssS'apps_meetup___init__'
p51
(dp52
g6
(dp53
g8
S'apps_meetup___init__.html'
p54
sg10
S'apps/meetup/__init__'
p55
sg12
g13
(g14
g15
NtRp56
(dp57
g18
I1
sg19
I0
sg20
I0
sg21
I0
sg22
I0
sg23
I0
sg24
I0
sbssg25
S'\xca\xf5\x9f\x7f\x88\xdfa\x831|T\x1d\xbc}\xa5v'
p58
ssS'apps_eventbrite_migrations___init__'
p59
(dp60
g6
(dp61
g8
S'apps_eventbrite_migrations___init__.html'
p62
sg10
S'apps/eventbrite/migrations/__init__'
p63
sg12
g13
(g14
g15
NtRp64
(dp65
g18
I1
sg19
I0
sg20
I0
sg21
I0
sg22
I0
sg23
I0
sg24
I0
sbssg25
S'\xca\xf5\x9f\x7f\x88\xdfa\x831|T\x1d\xbc}\xa5v'
p66
ssS'apps_eventbrite_migrations_0019_auto__chg_field_eventbriteoauth_postal_code__chg_field_eventbriteoauth'
p67
(dp68
g6
(dp69
g8
S'apps_eventbrite_migrations_0019_auto__chg_field_eventbriteoauth_postal_code__chg_field_eventbriteoauth.html'
p70
sg10
S'apps/eventbrite/migrations/0019_auto__chg_field_eventbriteoauth_postal_code__chg_field_eventbriteoauth'
p71
sg12
g13
(g14
g15
NtRp72
(dp73
g18
I1
sg19
I0
sg20
I15
sg21
I0
sg22
I0
sg23
I3
sg24
I0
sbssg25
S'#\x82\xf7\xbc\x90\x01~\x03}\xc3aLZ\xe7r3'
p74
ssS'apps_eventbrite_migrations_0002_auto__add_field_eventbriteevent_description__add_field_eventbriteevent'
p75
(dp76
g6
(dp77
g8
S'apps_eventbrite_migrations_0002_auto__add_field_eventbriteevent_description__add_field_eventbriteevent.html'
p78
sg10
S'apps/eventbrite/migrations/0002_auto__add_field_eventbriteevent_description__add_field_eventbriteevent'
p79
sg12
g13
(g14
g15
NtRp80
(dp81
g18
I1
sg19
I0
sg20
I59
sg21
I0
sg22
I0
sg23
I25
sg24
I0
sbssg25
S'\n\xde\t\xcb\xcaJ\xe5\xf2\x11\xbb\xa8\xeb\xe5\xae\xe7W'
p82
ssS'apps_events_tests'
p83
(dp84
g6
(dp85
g8
S'apps_events_tests.html'
p86
sg10
S'apps/events/tests'
p87
sg12
g13
(g14
g15
NtRp88
(dp89
g18
I1
sg19
I0
sg20
I1
sg21
I0
sg22
I0
sg23
I0
sg24
I0
sbssg25
S'\x18\xa2\xf7\x81\x94\xb4%\xa4\xfaT\xb8\x84>\xb2\xf3b'
p90
ssS'scraper_models'
p91
(dp92
g6
(dp93
g8
S'scraper_models.html'
p94
sg10
S'scraper/models'
p95
sg12
g13
(g14
g15
NtRp96
(dp97
g18
I1
sg19
I0
sg20
I10
sg21
I0
sg22
I0
sg23
I1
sg24
I0
sbssg25
S'\xf8.\x97<\xab]`\x8aS\xf00\x06U\x87\xbbx'
p98
ssS'apps_meetup_migrations_0010_auto__add_field_event_event_address2'
p99
(dp100
g6
(dp101
g8
S'apps_meetup_migrations_0010_auto__add_field_event_event_address2.html'
p102
sg10
S'apps/meetup/migrations/0010_auto__add_field_event_event_address2'
p103
sg12
g13
(g14
g15
NtRp104
(dp105
g18
I1
sg19
I0
sg20
I11
sg21
I0
sg22
I0
sg23
I1
sg24
I0
sbssg25
S'\xeb\x0c\x03\xe4\xe93\xf8\xf4^\xa9\x99\xf2\xa2I\x18\xf1'
p106
ssS'apps_eventbrite_migrations_0009_auto__chg_field_eventbriteevent_event_url__del_index_eventbriteevent_e'
p107
(dp108
g6
(dp109
g8
S'apps_eventbrite_migrations_0009_auto__chg_field_eventbriteevent_event_url__del_index_eventbriteevent_e.html'
p110
sg10
S'apps/eventbrite/migrations/0009_auto__chg_field_eventbriteevent_event_url__del_index_eventbriteevent_e'
p111
sg12
g13
(g14
g15
NtRp112
(dp113
g18
I1
sg19
I0
sg20
I13
sg21
I0
sg22
I0
sg23
I2
sg24
I0
sbssg25
S'm \xbe\xe6\x10\x93:\xe4%\xf1#{&\xb1\x04\xdb'
p114
ssS'scraper_migrations_0004_auto__del_field_scraper_name'
p115
(dp116
g6
(dp117
g8
S'scraper_migrations_0004_auto__del_field_scraper_name.html'
p118
sg10
S'scraper/migrations/0004_auto__del_field_scraper_name'
p119
sg12
g13
(g14
g15
NtRp120
(dp121
g18
I1
sg19
I0
sg20
I11
sg21
I0
sg22
I0
sg23
I1
sg24
I0
sbssg25
S':V!\xaaSb\xb1\x14u\xc0  \xe2\xa0\xe2\xd5'
p122
ssS'apps_meetup_migrations_0009_auto__add_field_event_source'
p123
(dp124
g6
(dp125
g8
S'apps_meetup_migrations_0009_auto__add_field_event_source.html'
p126
sg10
S'apps/meetup/migrations/0009_auto__add_field_event_source'
p127
sg12
g13
(g14
g15
NtRp128
(dp129
g18
I1
sg19
I0
sg20
I11
sg21
I0
sg22
I0
sg23
I1
sg24
I0
sbssg25
S'\x10Nm\xd2\t\x0e\x16{/o$&;"\x8fG'
p130
ssS'apps_profiles_migrations_0009_auto__add_usercity'
p131
(dp132
g6
(dp133
g8
S'apps_profiles_migrations_0009_auto__add_usercity.html'
p134
sg10
S'apps/profiles/migrations/0009_auto__add_usercity'
p135
sg12
g13
(g14
g15
NtRp136
(dp137
g18
I1
sg19
I0
sg20
I12
sg21
I0
sg22
I0
sg23
I1
sg24
I0
sbssg25
S"f\x02I\xbe\x0e\xaaF'\xd4oMeBt\xb3\xfa"
p138
ssS'apps_meetup_migrations_0013_auto__add_unique_event_event_id'
p139
(dp140
g6
(dp141
g8
S'apps_meetup_migrations_0013_auto__add_unique_event_event_id.html'
p142
sg10
S'apps/meetup/migrations/0013_auto__add_unique_event_event_id'
p143
sg12
g13
(g14
g15
NtRp144
(dp145
g18
I1
sg19
I0
sg20
I11
sg21
I0
sg22
I0
sg23
I1
sg24
I0
sbssg25
S'\xee\x99\xff\xf3\xc0\x92=\x8f\xa3\xc0\xce\xb4\x0f\xb7\xb3\x9b'
p146
ssS'apps_meetup_migrations_0006_auto__chg_field_event_city'
p147
(dp148
g6
(dp149
g8
S'apps_meetup_migrations_0006_auto__chg_field_event_city.html'
p150
sg10
S'apps/meetup/migrations/0006_auto__chg_field_event_city'
p151
sg12
g13
(g14
g15
NtRp152
(dp153
g18
I1
sg19
I0
sg20
I11
sg21
I0
sg22
I0
sg23
I1
sg24
I0
sbssg25
S'N\xf3\\\xb1\xad\x00\x8a}\x1dco\x9c\xd5A\x8f\xf3'
p154
ssS'bond_urls'
p155
(dp156
g6
(dp157
g8
S'bond_urls.html'
p158
sg10
S'bond/urls'
p159
sg12
g13
(g14
g15
NtRp160
(dp161
g18
I1
sg19
I0
sg20
I9
sg21
I0
sg22
I0
sg23
I0
sg24
I0
sbssg25
S'\x04~\x90\x81\xe7\x9b+\xdf:5\xe3T\xabN\x88\xab'
p162
ssS'apps_profiles_migrations___init__'
p163
(dp164
g6
(dp165
g8
S'apps_profiles_migrations___init__.html'
p166
sg10
S'apps/profiles/migrations/__init__'
p167
sg12
g13
(g14
g15
NtRp168
(dp169
g18
I1
sg19
I0
sg20
I0
sg21
I0
sg22
I0
sg23
I0
sg24
I0
sbssg25
S'\xca\xf5\x9f\x7f\x88\xdfa\x831|T\x1d\xbc}\xa5v'
p170
ssS'settings_local'
p171
(dp172
g6
(dp173
g8
S'settings_local.html'
p174
sg10
S'settings/local'
p175
sg12
g13
(g14
g15
NtRp176
(dp177
g18
I1
sg19
I0
sg20
I65
sg21
I0
sg22
I0
sg23
I2
sg24
I0
sbssg25
S'\x15\x02b!\xe5\x07\xd9\x9d\x90\x16\xa4\xf90\x8f\x12\x1f'
p178
ssS'apps_meetup_utils'
p179
(dp180
g6
(dp181
g8
S'apps_meetup_utils.html'
p182
sg10
S'apps/meetup/utils'
p183
sg12
g13
(g14
g15
NtRp184
(dp185
g18
I1
sg19
I0
sg20
I18
sg21
I0
sg22
I0
sg23
I18
sg24
I0
sbssg25
S'\x7f\xfc\x17\xd5\xc5\xba\xce\x99\xfc\xba\x91,\xb7\x0b\xabd'
p186
ssS'apps_meetup_migrations_0003_auto__add_field_event_event_created'
p187
(dp188
g6
(dp189
g8
S'apps_meetup_migrations_0003_auto__add_field_event_event_created.html'
p190
sg10
S'apps/meetup/migrations/0003_auto__add_field_event_event_created'
p191
sg12
g13
(g14
g15
NtRp192
(dp193
g18
I1
sg19
I0
sg20
I11
sg21
I0
sg22
I0
sg23
I1
sg24
I0
sbssg25
S'5\xd9\x7f\xe9\x8e-\xf6\xbe*\x1b\xafM\xc2{@g'
p194
ssS'scraper_management_commands___init__'
p195
(dp196
g6
(dp197
g8
S'scraper_management_commands___init__.html'
p198
sg10
S'scraper/management/commands/__init__'
p199
sg12
g13
(g14
g15
NtRp200
(dp201
g18
I1
sg19
I0
sg20
I1
sg21
I0
sg22
I0
sg23
I1
sg24
I0
sbssg25
S'\xf1\x93\xd8\x87\xed\xadn\xbcw\x82g\xceUu\xb7\xdc'
p202
ssS'bond_wsgi'
p203
(dp204
g6
(dp205
g8
S'bond_wsgi.html'
p206
sg10
S'bond/wsgi'
p207
sg12
g13
(g14
g15
NtRp208
(dp209
g18
I1
sg19
I0
sg20
I6
sg21
I0
sg22
I0
sg23
I6
sg24
I0
sbssg25
S'\xac#\xc9\xc6\xf0.\xdd\x94\xa8@\xf8\x0b\xe5\xfb\xcee'
p210
ssS'apps_eventbrite_migrations_0007_auto__chg_field_eventbriteevent_last_modified'
p211
(dp212
g6
(dp213
g8
S'apps_eventbrite_migrations_0007_auto__chg_field_eventbriteevent_last_modified.html'
p214
sg10
S'apps/eventbrite/migrations/0007_auto__chg_field_eventbriteevent_last_modified'
p215
sg12
g13
(g14
g15
NtRp216
(dp217
g18
I1
sg19
I0
sg20
I11
sg21
I0
sg22
I0
sg23
I1
sg24
I0
sbssg25
S'Gn\x19\x16\x90$\x1b_\xd9\x8cZFU\x00\xe5\t'
p218
ssS'apps_meetup_migrations_0008_auto__chg_field_event_timestamp'
p219
(dp220
g6
(dp221
g8
S'apps_meetup_migrations_0008_auto__chg_field_event_timestamp.html'
p222
sg10
S'apps/meetup/migrations/0008_auto__chg_field_event_timestamp'
p223
sg12
g13
(g14
g15
NtRp224
(dp225
g18
I1
sg19
I0
sg20
I11
sg21
I0
sg22
I0
sg23
I1
sg24
I0
sbssg25
S'd\xc6}\x94\xcd\xdf!\x15\x07\x882\xc9\x1dz\xbf\xbc'
p226
ssS'settings_production'
p227
(dp228
g6
(dp229
g8
S'settings_production.html'
p230
sg10
S'settings/production'
p231
sg12
g13
(g14
g15
NtRp232
(dp233
g18
I1
sg19
I0
sg20
I99
sg21
I0
sg22
I0
sg23
I0
sg24
I0
sbssg25
S';\xc0&\xca]\\\x97\x12#\x9d\x0fT\t\xdf\x06\xeb'
p234
ssS'apps_eventbrite_migrations_0014_auto__chg_field_eventbriteoauth_cost'
p235
(dp236
g6
(dp237
g8
S'apps_eventbrite_migrations_0014_auto__chg_field_eventbriteoauth_cost.html'
p238
sg10
S'apps/eventbrite/migrations/0014_auto__chg_field_eventbriteoauth_cost'
p239
sg12
g13
(g14
g15
NtRp240
(dp241
g18
I1
sg19
I0
sg20
I11
sg21
I0
sg22
I0
sg23
I1
sg24
I0
sbssg25
S'\x1az\x9a\x82\xfa\xe8\x81_\xb3}\x19\xb1\xc8\x0c\xe5\x97'
p242
ssS'apps_profiles_migrations_0001_initial'
p243
(dp244
g6
(dp245
g8
S'apps_profiles_migrations_0001_initial.html'
p246
sg10
S'apps/profiles/migrations/0001_initial'
p247
sg12
g13
(g14
g15
NtRp248
(dp249
g18
I1
sg19
I0
sg20
I11
sg21
I0
sg22
I0
sg23
I1
sg24
I0
sbssg25
S'gh\xd3\xbe\xaa\xba\xf7\xf1H=j\x10\xa5\x08$\x87'
p250
ssS'scraper_migrations___init__'
p251
(dp252
g6
(dp253
g8
S'scraper_migrations___init__.html'
p254
sg10
S'scraper/migrations/__init__'
p255
sg12
g13
(g14
g15
NtRp256
(dp257
g18
I1
sg19
I0
sg20
I0
sg21
I0
sg22
I0
sg23
I0
sg24
I0
sbssg25
S'\xca\xf5\x9f\x7f\x88\xdfa\x831|T\x1d\xbc}\xa5v'
p258
ssS'apps_eventbrite_migrations_0022_auto__del_eventbriteevent__del_eventbriteoauth'
p259
(dp260
g6
(dp261
g8
S'apps_eventbrite_migrations_0022_auto__del_eventbriteevent__del_eventbriteoauth.html'
p262
sg10
S'apps/eventbrite/migrations/0022_auto__del_eventbriteevent__del_eventbriteoauth'
p263
sg12
g13
(g14
g15
NtRp264
(dp265
g18
I1
sg19
I0
sg20
I15
sg21
I0
sg22
I0
sg23
I4
sg24
I0
sbssg25
S'aQ\x82\xe9\xfe\xbc\xb2\xc3c\xe2<\x805\xee\x9e\xe8'
p266
ssS'apps_meetup_migrations_0004_auto__chg_field_event_start_time__chg_field_event_end_time'
p267
(dp268
g6
(dp269
g8
S'apps_meetup_migrations_0004_auto__chg_field_event_start_time__chg_field_event_end_time.html'
p270
sg10
S'apps/meetup/migrations/0004_auto__chg_field_event_start_time__chg_field_event_end_time'
p271
sg12
g13
(g14
g15
NtRp272
(dp273
g18
I1
sg19
I0
sg20
I13
sg21
I0
sg22
I0
sg23
I2
sg24
I0
sbssg25
S'\xbey\x88\x83\x1a\x0cT\xad\x07|1\xa2\x7f\xfa\x8d\xd4'
p274
ssS'apps_maps___init__'
p275
(dp276
g6
(dp277
g8
S'apps_maps___init__.html'
p278
sg10
S'apps/maps/__init__'
p279
sg12
g13
(g14
g15
NtRp280
(dp281
g18
I1
sg19
I0
sg20
I0
sg21
I0
sg22
I0
sg23
I0
sg24
I0
sbssg25
S'\xca\xf5\x9f\x7f\x88\xdfa\x831|T\x1d\xbc}\xa5v'
p282
ssS'apps_profiles_views'
p283
(dp284
g6
(dp285
g8
S'apps_profiles_views.html'
p286
sg10
S'apps/profiles/views'
p287
sg12
g13
(g14
g15
NtRp288
(dp289
g18
I1
sg19
I0
sg20
I97
sg21
I0
sg22
I0
sg23
I77
sg24
I0
sbssg25
S'\x0c\xcfn\xb2\r\x04A\x02\x8f\t,\xfd\x9ba\x1bz'
p290
ssS'apps_profiles_forms'
p291
(dp292
g6
(dp293
g8
S'apps_profiles_forms.html'
p294
sg10
S'apps/profiles/forms'
p295
sg12
g13
(g14
g15
NtRp296
(dp297
g18
I1
sg19
I0
sg20
I44
sg21
I0
sg22
I0
sg23
I9
sg24
I0
sbssg25
S'\xaan\xe3\x13*\xa3\xd2\x8d\xd5w\xe9\xedN\xbbS\xce'
p298
ssS'apps_eventbrite_migrations_0016_auto__chg_field_eventbriteoauth_cost__chg_field_eventbriteoauth_cost_d'
p299
(dp300
g6
(dp301
g8
S'apps_eventbrite_migrations_0016_auto__chg_field_eventbriteoauth_cost__chg_field_eventbriteoauth_cost_d.html'
p302
sg10
S'apps/eventbrite/migrations/0016_auto__chg_field_eventbriteoauth_cost__chg_field_eventbriteoauth_cost_d'
p303
sg12
g13
(g14
g15
NtRp304
(dp305
g18
I1
sg19
I0
sg20
I15
sg21
I0
sg22
I0
sg23
I3
sg24
I0
sbssg25
S'\x17\xc2)\xae\xe3\xbbl\xfe\x18]\xf48\x07d\x13v'
p306
ssS'apps_profiles_migrations_0008_auto__add_field_profile_food_score__add_field_profile_wellness_score__'
p307
(dp308
g6
(dp309
g8
S'apps_profiles_migrations_0008_auto__add_field_profile_food_score__add_field_profile_wellness_score__.html'
p310
sg10
S'apps/profiles/migrations/0008_auto__add_field_profile_food_score__add_field_profile_wellness_score__'
p311
sg12
g13
(g14
g15
NtRp312
(dp313
g18
I1
sg19
I0
sg20
I19
sg21
I0
sg22
I0
sg23
I5
sg24
I0
sbssg25
S'\xe0\xf3Z\xd34\x8bn\xa9{\x97(\xd96\xc4\x90\xa7'
p314
ssS'bond___init__'
p315
(dp316
g6
(dp317
g8
S'bond___init__.html'
p318
sg10
S'bond/__init__'
p319
sg12
g13
(g14
g15
NtRp320
(dp321
g18
I1
sg19
I0
sg20
I0
sg21
I0
sg22
I0
sg23
I0
sg24
I0
sbssg25
S'\xca\xf5\x9f\x7f\x88\xdfa\x831|T\x1d\xbc}\xa5v'
p322
ssS'apps_eventbrite_migrations_0020_auto__chg_field_eventbriteoauth_event_name'
p323
(dp324
g6
(dp325
g8
S'apps_eventbrite_migrations_0020_auto__chg_field_eventbriteoauth_event_name.html'
p326
sg10
S'apps/eventbrite/migrations/0020_auto__chg_field_eventbriteoauth_event_name'
p327
sg12
g13
(g14
g15
NtRp328
(dp329
g18
I1
sg19
I0
sg20
I11
sg21
I0
sg22
I0
sg23
I1
sg24
I0
sbssg25
S'\xc6\xc2v\xf3\x8f\r\xba\xaa\xc5[!:\x1a\xa6J\x9b'
p330
ssS'apps_eventbrite_migrations_0005_auto__chg_field_eventbriteevent_timezone__chg_field_eventbriteevent_ti'
p331
(dp332
g6
(dp333
g8
S'apps_eventbrite_migrations_0005_auto__chg_field_eventbriteevent_timezone__chg_field_eventbriteevent_ti.html'
p334
sg10
S'apps/eventbrite/migrations/0005_auto__chg_field_eventbriteevent_timezone__chg_field_eventbriteevent_ti'
p335
sg12
g13
(g14
g15
NtRp336
(dp337
g18
I1
sg19
I0
sg20
I13
sg21
I0
sg22
I0
sg23
I2
sg24
I0
sbssg25
S']\xbcN-\xbc\xbbb\xc4:\x1c\xfd\x0f8\xfc5\xb2'
p338
ssS'apps_meetup_celery'
p339
(dp340
g6
(dp341
g8
S'apps_meetup_celery.html'
p342
sg10
S'apps/meetup/celery'
p343
sg12
g13
(g14
g15
NtRp344
(dp345
g18
I1
sg19
I0
sg20
I9
sg21
I0
sg22
I0
sg23
I0
sg24
I0
sbssg25
S'\x19;\x05\xa9U_\xfa\x8bl\xc0*\xd5B\x12x\xeb'
p346
ssS'apps_maps_admin'
p347
(dp348
g6
(dp349
g8
S'apps_maps_admin.html'
p350
sg10
S'apps/maps/admin'
p351
sg12
g13
(g14
g15
NtRp352
(dp353
g18
I1
sg19
I0
sg20
I1
sg21
I0
sg22
I0
sg23
I1
sg24
I0
sbssg25
S"\xa6\x8e\x88=\x91\xca\x9f\xe0\xefM'\xc8.\xaf\x9d\xf7"
p354
ssS'apps___init__'
p355
(dp356
g6
(dp357
g8
S'apps___init__.html'
p358
sg10
S'apps/__init__'
p359
sg12
g13
(g14
g15
NtRp360
(dp361
g18
I1
sg19
I0
sg20
I1
sg21
I0
sg22
I0
sg23
I0
sg24
I0
sbssg25
S'\x9a\x9fs\xec/"\xa2\x1c\xad|\xb3\xfb3\xbc\xb9\xa4'
p362
ssS'apps_meetup_migrations_0014_auto__del_unique_event_event_id'
p363
(dp364
g6
(dp365
g8
S'apps_meetup_migrations_0014_auto__del_unique_event_event_id.html'
p366
sg10
S'apps/meetup/migrations/0014_auto__del_unique_event_event_id'
p367
sg12
g13
(g14
g15
NtRp368
(dp369
g18
I1
sg19
I0
sg20
I11
sg21
I0
sg22
I0
sg23
I1
sg24
I0
sbssg25
S'\xc2\xb2\xa0\xc5xXW#V*^8\xc6\xc6\x1b}'
p370
ssS'scraper_migrations_0001_initial'
p371
(dp372
g6
(dp373
g8
S'scraper_migrations_0001_initial.html'
p374
sg10
S'scraper/migrations/0001_initial'
p375
sg12
g13
(g14
g15
NtRp376
(dp377
g18
I1
sg19
I0
sg20
I11
sg21
I0
sg22
I0
sg23
I1
sg24
I0
sbssg25
S'\xf7o\xbe\xf8\xaf2(\x0e\x11\x03\x12\x11\x80\xe4+\xc5'
p378
ssS'apps_meetup_migrations_0001_initial'
p379
(dp380
g6
(dp381
g8
S'apps_meetup_migrations_0001_initial.html'
p382
sg10
S'apps/meetup/migrations/0001_initial'
p383
sg12
g13
(g14
g15
NtRp384
(dp385
g18
I1
sg19
I0
sg20
I11
sg21
I0
sg22
I0
sg23
I1
sg24
I0
sbssg25
S"~1\xbcr\x07\r\xafc\xf1\xb3\x84S'\xd96\xd4"
p386
ssS'local_settings'
p387
(dp388
g6
(dp389
g8
S'local_settings.html'
p390
sg10
g387
sg12
g13
(g14
g15
NtRp391
(dp392
g18
I1
sg19
I0
sg20
I4
sg21
I0
sg22
I0
sg23
I0
sg24
I0
sbssg25
S'\xe4\xf9@\xbc\xbe\xcf\xed\x1e\xfd\xc7P\xdec\xd2\xdd1'
p393
ssS'apps_eventbrite_views'
p394
(dp395
g6
(dp396
g8
S'apps_eventbrite_views.html'
p397
sg10
S'apps/eventbrite/views'
p398
sg12
g13
(g14
g15
NtRp399
(dp400
g18
I1
sg19
I0
sg20
I0
sg21
I0
sg22
I0
sg23
I0
sg24
I0
sbssg25
S'\xe5P\x11)^\xf4>1D.\x0e\x0b\xa1\xf8[+'
p401
ssS'scraper_items'
p402
(dp403
g6
(dp404
g8
S'scraper_items.html'
p405
sg10
S'scraper/items'
p406
sg12
g13
(g14
g15
NtRp407
(dp408
g18
I1
sg19
I0
sg20
I7
sg21
I0
sg22
I0
sg23
I7
sg24
I0
sbssg25
S'I\n8!`R"i~\xc5$\x8c\xdc+\x15\x07'
p409
ssS'apps_profiles_migrations_0002_auto__add_authprovider__add_interest__add_profile'
p410
(dp411
g6
(dp412
g8
S'apps_profiles_migrations_0002_auto__add_authprovider__add_interest__add_profile.html'
p413
sg10
S'apps/profiles/migrations/0002_auto__add_authprovider__add_interest__add_profile'
p414
sg12
g13
(g14
g15
NtRp415
(dp416
g18
I1
sg19
I0
sg20
I23
sg21
I0
sg22
I0
sg23
I4
sg24
I0
sbssg25
S'"\x7f\xfa\xff\xbe\xb6A\xae{\xd4n\x0b\x07w\xaf\xa4'
p417
ssS'apps_meetup_management_commands___init__'
p418
(dp419
g6
(dp420
g8
S'apps_meetup_management_commands___init__.html'
p421
sg10
S'apps/meetup/management/commands/__init__'
p422
sg12
g13
(g14
g15
NtRp423
(dp424
g18
I1
sg19
I0
sg20
I1
sg21
I0
sg22
I0
sg23
I1
sg24
I0
sbssg25
S'\x8c\xe7s\x12?<\x86\xdb\xa1BE\xbdS\xfb\x91>'
p425
ssS'apps_eventbrite_migrations_0021_auto__chg_field_eventbriteoauth_address__chg_field_eventbriteoauth_cat'
p426
(dp427
g6
(dp428
g8
S'apps_eventbrite_migrations_0021_auto__chg_field_eventbriteoauth_address__chg_field_eventbriteoauth_cat.html'
p429
sg10
S'apps/eventbrite/migrations/0021_auto__chg_field_eventbriteoauth_address__chg_field_eventbriteoauth_cat'
p430
sg12
g13
(g14
g15
NtRp431
(dp432
g18
I1
sg19
I0
sg20
I13
sg21
I0
sg22
I0
sg23
I2
sg24
I0
sbssg25
S'R\xcc\xe0\x8c\\\xce\x7f\xc8\x8c}y\x0eb(\x12\x9d'
p433
ssS'apps_meetup_management_commands_strip'
p434
(dp435
g6
(dp436
g8
S'apps_meetup_management_commands_strip.html'
p437
sg10
S'apps/meetup/management/commands/strip'
p438
sg12
g13
(g14
g15
NtRp439
(dp440
g18
I1
sg19
I0
sg20
I9
sg21
I0
sg22
I0
sg23
I9
sg24
I0
sbssg25
S"t\xcf`'\x0cE\xf5=h[\xbe\x880\x16^\xff"
p441
ssS'apps_meetup_permissions'
p442
(dp443
g6
(dp444
g8
S'apps_meetup_permissions.html'
p445
sg10
S'apps/meetup/permissions'
p446
sg12
g13
(g14
g15
NtRp447
(dp448
g18
I1
sg19
I0
sg20
I1
sg21
I0
sg22
I0
sg23
I1
sg24
I0
sbssg25
S'?ACe\xe2m\x89\xd0A\xa4:I\xdbv\x1c\xe7'
p449
ssS'apps_meetup_migrations_0007_auto__chg_field_event_group_name__chg_field_event_event_address'
p450
(dp451
g6
(dp452
g8
S'apps_meetup_migrations_0007_auto__chg_field_event_group_name__chg_field_event_event_address.html'
p453
sg10
S'apps/meetup/migrations/0007_auto__chg_field_event_group_name__chg_field_event_event_address'
p454
sg12
g13
(g14
g15
NtRp455
(dp456
g18
I1
sg19
I0
sg20
I13
sg21
I0
sg22
I0
sg23
I2
sg24
I0
sbssg25
S'\xe7D;g\x8fPZ\x01\xb9t\x16T\xaehI6'
p457
ssS'apps_eventbrite_migrations_0018_auto__chg_field_eventbriteoauth_cost'
p458
(dp459
g6
(dp460
g8
S'apps_eventbrite_migrations_0018_auto__chg_field_eventbriteoauth_cost.html'
p461
sg10
S'apps/eventbrite/migrations/0018_auto__chg_field_eventbriteoauth_cost'
p462
sg12
g13
(g14
g15
NtRp463
(dp464
g18
I1
sg19
I0
sg20
I11
sg21
I0
sg22
I0
sg23
I1
sg24
I0
sbssg25
S'}\xc7\xc7(F\x1a\x1f\xf5\xbcg\x93\x88;\x10\x01\xa1'
p465
ssS'apps_meetup_migrations_0002_auto__add_event'
p466
(dp467
g6
(dp468
g8
S'apps_meetup_migrations_0002_auto__add_event.html'
p469
sg10
S'apps/meetup/migrations/0002_auto__add_event'
p470
sg12
g13
(g14
g15
NtRp471
(dp472
g18
I1
sg19
I0
sg20
I12
sg21
I0
sg22
I0
sg23
I1
sg24
I0
sbssg25
S'\x13\x12<<\xfe\x04K8U\x16\xdcU\xc7,J\xf7'
p473
ssS'apps_profiles_migrations_0006_auto__del_notification__add_field_profile_email_notification__add_fiel'
p474
(dp475
g6
(dp476
g8
S'apps_profiles_migrations_0006_auto__del_notification__add_field_profile_email_notification__add_fiel.html'
p477
sg10
S'apps/profiles/migrations/0006_auto__del_notification__add_field_profile_email_notification__add_fiel'
p478
sg12
g13
(g14
g15
NtRp479
(dp480
g18
I1
sg19
I0
sg20
I16
sg21
I0
sg22
I0
sg23
I4
sg24
I0
sbssg25
S'\xda\xfd:r\xf7\xd2\xb2#\xb7\x88\xcd\x8c\xe9>\x0f\x15'
p481
ssS'apps_profiles_models'
p482
(dp483
g6
(dp484
g8
S'apps_profiles_models.html'
p485
sg10
S'apps/profiles/models'
p486
sg12
g13
(g14
g15
NtRp487
(dp488
g18
I1
sg19
I0
sg20
I60
sg21
I0
sg22
I0
sg23
I5
sg24
I0
sbssg25
S'\xb9\xe5\xe21\xdc\xd1Oe\x15\x95\x0e\xb5\xcfRC\x92'
p489
ssS'apps_meetup_views'
p490
(dp491
g6
(dp492
g8
S'apps_meetup_views.html'
p493
sg10
S'apps/meetup/views'
p494
sg12
g13
(g14
g15
NtRp495
(dp496
g18
I1
sg19
I0
sg20
I49
sg21
I0
sg22
I0
sg23
I20
sg24
I0
sbssg25
S'\xc3&\xfb\x9b\x19sv\x954\xdb\xe6\xab\x10\xd0y\xc9'
p497
ssS'apps_meetup_tasks'
p498
(dp499
g6
(dp500
g8
S'apps_meetup_tasks.html'
p501
sg10
S'apps/meetup/tasks'
p502
sg12
g13
(g14
g15
NtRp503
(dp504
g18
I1
sg19
I0
sg20
I9
sg21
I0
sg22
I0
sg23
I1
sg24
I0
sbssg25
S'\xcd1\xd4\x10H\xa5\x8a\x15[\xc8W\x99\x12\x10\xe3\xb2'
p505
ssS'apps_eventbrite_management_commands_eventbrite'
p506
(dp507
g6
(dp508
g8
S'apps_eventbrite_management_commands_eventbrite.html'
p509
sg10
S'apps/eventbrite/management/commands/eventbrite'
p510
sg12
g13
(g14
g15
NtRp511
(dp512
g18
I1
sg19
I0
sg20
I40
sg21
I0
sg22
I0
sg23
I40
sg24
I0
sbssg25
S'\xe1G\x93w*\x1c\xd2C\xbd`H\xd2\xb5\x08\xc69'
p513
ssS'apps_eventbrite_migrations_0010_auto__chg_field_eventbriteevent_latitude__chg_field_eventbriteevent_lo'
p514
(dp515
g6
(dp516
g8
S'apps_eventbrite_migrations_0010_auto__chg_field_eventbriteevent_latitude__chg_field_eventbriteevent_lo.html'
p517
sg10
S'apps/eventbrite/migrations/0010_auto__chg_field_eventbriteevent_latitude__chg_field_eventbriteevent_lo'
p518
sg12
g13
(g14
g15
NtRp519
(dp520
g18
I1
sg19
I0
sg20
I13
sg21
I0
sg22
I0
sg23
I2
sg24
I0
sbssg25
S'L\\w\x1a\xc4\xd7\xa0}\xd3\x87\x85\x1f\xcd\xc85\x81'
p521
ssS'apps_eventbrite_migrations_0003_auto__add_field_eventbriteevent_tickets'
p522
(dp523
g6
(dp524
g8
S'apps_eventbrite_migrations_0003_auto__add_field_eventbriteevent_tickets.html'
p525
sg10
S'apps/eventbrite/migrations/0003_auto__add_field_eventbriteevent_tickets'
p526
sg12
g13
(g14
g15
NtRp527
(dp528
g18
I1
sg19
I0
sg20
I11
sg21
I0
sg22
I0
sg23
I1
sg24
I0
sbssg25
S'\xfc\xaelY\xc1\xa6\xa1\xd4R\x83z`\xf0Sb\xa4'
p529
ssS'apps_profiles_pipeline_user'
p530
(dp531
g6
(dp532
g8
S'apps_profiles_pipeline_user.html'
p533
sg10
S'apps/profiles/pipeline/user'
p534
sg12
g13
(g14
g15
NtRp535
(dp536
g18
I1
sg19
I0
sg20
I25
sg21
I0
sg22
I0
sg23
I25
sg24
I0
sbssg25
S'\x81\x07\xc2*\xa2\x15\xd4\xba\xe1\xcd\xc0`\xc1R\x19*'
p537
ssS'apps_profiles___init__'
p538
(dp539
g6
(dp540
g8
S'apps_profiles___init__.html'
p541
sg10
S'apps/profiles/__init__'
p542
sg12
g13
(g14
g15
NtRp543
(dp544
g18
I1
sg19
I0
sg20
I0
sg21
I0
sg22
I0
sg23
I0
sg24
I0
sbssg25
S'\xca\xf5\x9f\x7f\x88\xdfa\x831|T\x1d\xbc}\xa5v'
p545
ssS'apps_profiles_migrations_0004_auto__add_notification'
p546
(dp547
g6
(dp548
g8
S'apps_profiles_migrations_0004_auto__add_notification.html'
p549
sg10
S'apps/profiles/migrations/0004_auto__add_notification'
p550
sg12
g13
(g14
g15
NtRp551
(dp552
g18
I1
sg19
I0
sg20
I12
sg21
I0
sg22
I0
sg23
I1
sg24
I0
sbssg25
S'\xbf\xbe|l\x89\xbdM7n\xca\xeb%\xf4\xe2Qx'
p553
ssS'apps_meetup_migrations_0011_auto__del_field_event_created__del_field_event_time'
p554
(dp555
g6
(dp556
g8
S'apps_meetup_migrations_0011_auto__del_field_event_created__del_field_event_time.html'
p557
sg10
S'apps/meetup/migrations/0011_auto__del_field_event_created__del_field_event_time'
p558
sg12
g13
(g14
g15
NtRp559
(dp560
g18
I1
sg19
I0
sg20
I13
sg21
I0
sg22
I0
sg23
I2
sg24
I0
sbssg25
S'\x90\x06\x80\x19\xa7P\xb7\xcd\xeaW\x1fZq\x14\x87\xf6'
p561
ssS'apps_meetup_forms'
p562
(dp563
g6
(dp564
g8
S'apps_meetup_forms.html'
p565
sg10
S'apps/meetup/forms'
p566
sg12
g13
(g14
g15
NtRp567
(dp568
g18
I1
sg19
I0
sg20
I1
sg21
I0
sg22
I0
sg23
I1
sg24
I0
sbssg25
S'd\xbe\xc3\xf7\x06\x06\xdf]\x96.q\xe0\xf9\xed3_'
p569
ssS'manage'
p570
(dp571
g6
(dp572
g8
S'manage.html'
p573
sg10
g570
sg12
g13
(g14
g15
NtRp574
(dp575
g18
I1
sg19
I0
sg20
I8
sg21
I0
sg22
I0
sg23
I0
sg24
I0
sbssg25
S'\xea\xf4W\x1c\x8a\x96 !\x80\xbd\xc0\xcb\x91\xb4nX'
p576
ssS'apps_eventbrite_migrations_0011_auto__add_eventbriteoauth'
p577
(dp578
g6
(dp579
g8
S'apps_eventbrite_migrations_0011_auto__add_eventbriteoauth.html'
p580
sg10
S'apps/eventbrite/migrations/0011_auto__add_eventbriteoauth'
p581
sg12
g13
(g14
g15
NtRp582
(dp583
g18
I1
sg19
I0
sg20
I12
sg21
I0
sg22
I0
sg23
I1
sg24
I0
sbssg25
S'\xe0\r\xa9\x10\xb1\x15\xb99\x8a\xaf{\x8c\xffl\xf0\x7f'
p584
ssS'apps_eventbrite_migrations_0008_auto__chg_field_eventbriteevent_event_url__add_index_eventbriteevent_e'
p585
(dp586
g6
(dp587
g8
S'apps_eventbrite_migrations_0008_auto__chg_field_eventbriteevent_event_url__add_index_eventbriteevent_e.html'
p588
sg10
S'apps/eventbrite/migrations/0008_auto__chg_field_eventbriteevent_event_url__add_index_eventbriteevent_e'
p589
sg12
g13
(g14
g15
NtRp590
(dp591
g18
I1
sg19
I0
sg20
I13
sg21
I0
sg22
I0
sg23
I2
sg24
I0
sbssg25
S'O\x9e\xca!\xd3\x01\xf0\xa7\xc8\x8a\x03\xc3\x8f\x0c\x0e\xee'
p592
ssS'apps_eventbrite_migrations_0015_auto__chg_field_eventbriteoauth_event_id'
p593
(dp594
g6
(dp595
g8
S'apps_eventbrite_migrations_0015_auto__chg_field_eventbriteoauth_event_id.html'
p596
sg10
S'apps/eventbrite/migrations/0015_auto__chg_field_eventbriteoauth_event_id'
p597
sg12
g13
(g14
g15
NtRp598
(dp599
g18
I1
sg19
I0
sg20
I11
sg21
I0
sg22
I0
sg23
I1
sg24
I0
sbssg25
S'd\x1f\t\x05\x95\xb75j\x08k\x11\xab:3\r\xd0'
p600
ssS'apps_profiles_migrations_0005_auto__del_preference__add_categorypreference__chg_field_interest_choic'
p601
(dp602
g6
(dp603
g8
S'apps_profiles_migrations_0005_auto__del_preference__add_categorypreference__chg_field_interest_choic.html'
p604
sg10
S'apps/profiles/migrations/0005_auto__del_preference__add_categorypreference__chg_field_interest_choic'
p605
sg12
g13
(g14
g15
NtRp606
(dp607
g18
I1
sg19
I0
sg20
I17
sg21
I0
sg22
I0
sg23
I4
sg24
I0
sbssg25
S'\x0c\xb2\xd9\x96\xb4\x89t\x97=M\xf4\xa2\xec\\\xe6\xe7'
p608
ssS'scraper_settings'
p609
(dp610
g6
(dp611
g8
S'scraper_settings.html'
p612
sg10
S'scraper/settings'
p613
sg12
g13
(g14
g15
NtRp614
(dp615
g18
I1
sg19
I0
sg20
I4
sg21
I0
sg22
I0
sg23
I4
sg24
I0
sbssg25
S'*\x81A\x06\xd4t\xed\x9aF\x82\x13\x03\xb1\xf4\xa3\xf0'
p616
ssS'apps_events_admin'
p617
(dp618
g6
(dp619
g8
S'apps_events_admin.html'
p620
sg10
S'apps/events/admin'
p621
sg12
g13
(g14
g15
NtRp622
(dp623
g18
I1
sg19
I0
sg20
I1
sg21
I0
sg22
I0
sg23
I0
sg24
I0
sbssg25
S'\xd4\xe9\x8c\x82\x9c\xa2eU\x87h\x8b\xbe!-\xe2\xdf'
p624
ssS'apps_profiles_pipeline___init__'
p625
(dp626
g6
(dp627
g8
S'apps_profiles_pipeline___init__.html'
p628
sg10
S'apps/profiles/pipeline/__init__'
p629
sg12
g13
(g14
g15
NtRp630
(dp631
g18
I1
sg19
I0
sg20
I1
sg21
I0
sg22
I0
sg23
I1
sg24
I0
sbssg25
S'\x8c\xe7s\x12?<\x86\xdb\xa1BE\xbdS\xfb\x91>'
p632
ssS'scraper_tests'
p633
(dp634
g6
(dp635
g8
S'scraper_tests.html'
p636
sg10
S'scraper/tests'
p637
sg12
g13
(g14
g15
NtRp638
(dp639
g18
I1
sg19
I0
sg20
I1
sg21
I0
sg22
I0
sg23
I0
sg24
I0
sbssg25
S'\x18\xa2\xf7\x81\x94\xb4%\xa4\xfaT\xb8\x84>\xb2\xf3b'
p640
ssS'apps_meetup_management___init__'
p641
(dp642
g6
(dp643
g8
S'apps_meetup_management___init__.html'
p644
sg10
S'apps/meetup/management/__init__'
p645
sg12
g13
(g14
g15
NtRp646
(dp647
g18
I1
sg19
I0
sg20
I1
sg21
I0
sg22
I0
sg23
I0
sg24
I0
sbssg25
S'\x9a\x9fs\xec/"\xa2\x1c\xad|\xb3\xfb3\xbc\xb9\xa4'
p648
ssS'scraper_management_commands_scrapy'
p649
(dp650
g6
(dp651
g8
S'scraper_management_commands_scrapy.html'
p652
sg10
S'scraper/management/commands/scrapy'
p653
sg12
g13
(g14
g15
NtRp654
(dp655
g18
I1
sg19
I0
sg20
I11
sg21
I0
sg22
I0
sg23
I11
sg24
I0
sbssg25
S'^\xf7\x02\xa1\xf5\x89l\xc7s\xda\x92\x8f\xd5\xd0\x11\xe9'
p656
ssS'apps_profiles_migrations_0010_auto__add_field_profile_fib'
p657
(dp658
g6
(dp659
g8
S'apps_profiles_migrations_0010_auto__add_field_profile_fib.html'
p660
sg10
S'apps/profiles/migrations/0010_auto__add_field_profile_fib'
p661
sg12
g13
(g14
g15
NtRp662
(dp663
g18
I1
sg19
I0
sg20
I11
sg21
I0
sg22
I0
sg23
I1
sg24
I0
sbssg25
S'B\xe3W\xc2\xe7\xf8u\xc8\n\t\x14^\x98\xff\xf9\xaa'
p664
ssS'apps_eventbrite_migrations_0001_initial'
p665
(dp666
g6
(dp667
g8
S'apps_eventbrite_migrations_0001_initial.html'
p668
sg10
S'apps/eventbrite/migrations/0001_initial'
p669
sg12
g13
(g14
g15
NtRp670
(dp671
g18
I1
sg19
I0
sg20
I12
sg21
I0
sg22
I0
sg23
I1
sg24
I0
sbssg25
S'\x16\xdd\x94\xfaI\xe7\x8c\xe4|\xf8aE\rs\xfa\xdf'
p672
ssS'apps_profiles_migrations_0003_auto__add_preference__add_interest'
p673
(dp674
g6
(dp675
g8
S'apps_profiles_migrations_0003_auto__add_preference__add_interest.html'
p676
sg10
S'apps/profiles/migrations/0003_auto__add_preference__add_interest'
p677
sg12
g13
(g14
g15
NtRp678
(dp679
g18
I1
sg19
I0
sg20
I15
sg21
I0
sg22
I0
sg23
I2
sg24
I0
sbssg25
S'\x97\xfe\x8e\x94\xf3\xc6g s\xbd\x01R3\x81[\xf8'
p680
ssS'apps_meetup_management_commands_meetup'
p681
(dp682
g6
(dp683
g8
S'apps_meetup_management_commands_meetup.html'
p684
sg10
S'apps/meetup/management/commands/meetup'
p685
sg12
g13
(g14
g15
NtRp686
(dp687
g18
I1
sg19
I0
sg20
I58
sg21
I0
sg22
I0
sg23
I58
sg24
I0
sbssg25
S'f\x96v\xcfJ\xe7\xf04\x01\r\xffp^\x91\x98@'
p688
ssS'apps_eventbrite_migrations_0013_auto__chg_field_eventbriteoauth_latitude__chg_field_eventbriteoauth_lo'
p689
(dp690
g6
(dp691
g8
S'apps_eventbrite_migrations_0013_auto__chg_field_eventbriteoauth_latitude__chg_field_eventbriteoauth_lo.html'
p692
sg10
S'apps/eventbrite/migrations/0013_auto__chg_field_eventbriteoauth_latitude__chg_field_eventbriteoauth_lo'
p693
sg12
g13
(g14
g15
NtRp694
(dp695
g18
I1
sg19
I0
sg20
I13
sg21
I0
sg22
I0
sg23
I2
sg24
I0
sbssg25
S'\x13tn\x9f#\x11\xf5\xa4\xb7F\xdcx$(\xd2b'
p696
ssS'apps_profiles_test_utils'
p697
(dp698
g6
(dp699
g8
S'apps_profiles_test_utils.html'
p700
sg10
S'apps/profiles/test_utils'
p701
sg12
g13
(g14
g15
NtRp702
(dp703
g18
I1
sg19
I0
sg20
I54
sg21
I0
sg22
I0
sg23
I5
sg24
I0
sbssg25
S'1\x85\xde-\xe9\xd2\xce\xa6\xa7]rJ\xce4\xb4\xb8'
p704
ssS'scraper_spiders___init__'
p705
(dp706
g6
(dp707
g8
S'scraper_spiders___init__.html'
p708
sg10
S'scraper/spiders/__init__'
p709
sg12
g13
(g14
g15
NtRp710
(dp711
g18
I1
sg19
I0
sg20
I1
sg21
I0
sg22
I0
sg23
I1
sg24
I0
sbssg25
S'\x8c\xe7s\x12?<\x86\xdb\xa1BE\xbdS\xfb\x91>'
p712
ssS'apps_profiles_tests'
p713
(dp714
g6
(dp715
g8
S'apps_profiles_tests.html'
p716
sg10
S'apps/profiles/tests'
p717
sg12
g13
(g14
g15
NtRp718
(dp719
g18
I1
sg19
I0
sg20
I16
sg21
I0
sg22
I0
sg23
I0
sg24
I0
sbssg25
S':\x85\xa3\x17\x06d\x91\xd5\xb6\n\xf4f\xb6\xe5\x04\xb0'
p720
ssS'apps_meetup_migrations_0015_auto__add_unique_event_event_id'
p721
(dp722
g6
(dp723
g8
S'apps_meetup_migrations_0015_auto__add_unique_event_event_id.html'
p724
sg10
S'apps/meetup/migrations/0015_auto__add_unique_event_event_id'
p725
sg12
g13
(g14
g15
NtRp726
(dp727
g18
I1
sg19
I0
sg20
I11
sg21
I0
sg22
I0
sg23
I1
sg24
I0
sbssg25
S'\xee\x99\xff\xf3\xc0\x92=\x8f\xa3\xc0\xce\xb4\x0f\xb7\xb3\x9b'
p728
ssS'apps_maps_tests'
p729
(dp730
g6
(dp731
g8
S'apps_maps_tests.html'
p732
sg10
S'apps/maps/tests'
p733
sg12
g13
(g14
g15
NtRp734
(dp735
g18
I1
sg19
I0
sg20
I1
sg21
I0
sg22
I0
sg23
I0
sg24
I0
sbssg25
S'\x18\xa2\xf7\x81\x94\xb4%\xa4\xfaT\xb8\x84>\xb2\xf3b'
p736
ssS'apps_profiles_migrations_0007_auto__add_field_profile_distance__add_field_profile_notice_frequency'
p737
(dp738
g6
(dp739
g8
S'apps_profiles_migrations_0007_auto__add_field_profile_distance__add_field_profile_notice_frequency.html'
p740
sg10
S'apps/profiles/migrations/0007_auto__add_field_profile_distance__add_field_profile_notice_frequency'
p741
sg12
g13
(g14
g15
NtRp742
(dp743
g18
I1
sg19
I0
sg20
I13
sg21
I0
sg22
I0
sg23
I2
sg24
I0
sbssg25
S';\xfc\t\xfd\x8b\x1dh(\xd9\x97\xcbv8T)#'
p744
ssS'apps_eventbrite_migrations_0017_auto__del_field_eventbriteoauth_ticket_free__add_field_eventbriteoauth'
p745
(dp746
g6
(dp747
g8
S'apps_eventbrite_migrations_0017_auto__del_field_eventbriteoauth_ticket_free__add_field_eventbriteoauth.html'
p748
sg10
S'apps/eventbrite/migrations/0017_auto__del_field_eventbriteoauth_ticket_free__add_field_eventbriteoauth'
p749
sg12
g13
(g14
g15
NtRp750
(dp751
g18
I1
sg19
I0
sg20
I13
sg21
I0
sg22
I0
sg23
I2
sg24
I0
sbssg25
S'i+c\xdc]\xd2".w\x94\xf9`,\x8e\x9c\xda'
p752
ssS'apps_meetup_migrations_0005_auto__chg_field_event_zip'
p753
(dp754
g6
(dp755
g8
S'apps_meetup_migrations_0005_auto__chg_field_event_zip.html'
p756
sg10
S'apps/meetup/migrations/0005_auto__chg_field_event_zip'
p757
sg12
g13
(g14
g15
NtRp758
(dp759
g18
I1
sg19
I0
sg20
I11
sg21
I0
sg22
I0
sg23
I1
sg24
I0
sbssg25
S'!\x07L\x81O\xd8d\xc1\n\xbd\xdf\xc3\xce\xf0fW'
p760
ssS'apps_meetup_migrations___init__'
p761
(dp762
g6
(dp763
g8
S'apps_meetup_migrations___init__.html'
p764
sg10
S'apps/meetup/migrations/__init__'
p765
sg12
g13
(g14
g15
NtRp766
(dp767
g18
I1
sg19
I0
sg20
I0
sg21
I0
sg22
I0
sg23
I0
sg24
I0
sbssg25
S'\xca\xf5\x9f\x7f\x88\xdfa\x831|T\x1d\xbc}\xa5v'
p768
ssS'apps_meetup_serializer'
p769
(dp770
g6
(dp771
g8
S'apps_meetup_serializer.html'
p772
sg10
S'apps/meetup/serializer'
p773
sg12
g13
(g14
g15
NtRp774
(dp775
g18
I1
sg19
I0
sg20
I7
sg21
I0
sg22
I0
sg23
I0
sg24
I0
sbssg25
S'\x13\xef\xf0Mg\x93J|)\xef\x7fi\x80Ad\x13'
p776
ssS'apps_eventbrite___init__'
p777
(dp778
g6
(dp779
g8
S'apps_eventbrite___init__.html'
p780
sg10
S'apps/eventbrite/__init__'
p781
sg12
g13
(g14
g15
NtRp782
(dp783
g18
I1
sg19
I0
sg20
I0
sg21
I0
sg22
I0
sg23
I0
sg24
I0
sbssg25
S'\xca\xf5\x9f\x7f\x88\xdfa\x831|T\x1d\xbc}\xa5v'
p784
ssS'apps_eventbrite_models'
p785
(dp786
g6
(dp787
g8
S'apps_eventbrite_models.html'
p788
sg10
S'apps/eventbrite/models'
p789
sg12
g13
(g14
g15
NtRp790
(dp791
g18
I1
sg19
I0
sg20
I1
sg21
I0
sg22
I0
sg23
I0
sg24
I0
sbssg25
S"\x13A\x8e`\\\x8f\xb2$' f@Am\x04\x82"
p792
ssS'apps_profiles_migrations_0011_auto__chg_field_profile_fib'
p793
(dp794
g6
(dp795
g8
S'apps_profiles_migrations_0011_auto__chg_field_profile_fib.html'
p796
sg10
S'apps/profiles/migrations/0011_auto__chg_field_profile_fib'
p797
sg12
g13
(g14
g15
NtRp798
(dp799
g18
I1
sg19
I0
sg20
I11
sg21
I0
sg22
I0
sg23
I1
sg24
I0
sbssg25
S'\x0f\xa2\xbb\xc9^Y\x1cbg\x13z\xf7\xbd\x1c\x0c\xfb'
p800
ssS'apps_eventbrite_migrations_0006_auto__chg_field_eventbriteevent_event_start_date'
p801
(dp802
g6
(dp803
g8
S'apps_eventbrite_migrations_0006_auto__chg_field_eventbriteevent_event_start_date.html'
p804
sg10
S'apps/eventbrite/migrations/0006_auto__chg_field_eventbriteevent_event_start_date'
p805
sg12
g13
(g14
g15
NtRp806
(dp807
g18
I1
sg19
I0
sg20
I11
sg21
I0
sg22
I0
sg23
I1
sg24
I0
sbssg25
S'\xcc\xdf\x8a^\xfe\x8d\x0c\x92}\xb7\x03>\xc4\xcd\xaf\x86'
p808
ssS'apps_eventbrite_migrations_0012_auto__chg_field_eventbriteoauth_ticket_free'
p809
(dp810
g6
(dp811
g8
S'apps_eventbrite_migrations_0012_auto__chg_field_eventbriteoauth_ticket_free.html'
p812
sg10
S'apps/eventbrite/migrations/0012_auto__chg_field_eventbriteoauth_ticket_free'
p813
sg12
g13
(g14
g15
NtRp814
(dp815
g18
I1
sg19
I0
sg20
I11
sg21
I0
sg22
I0
sg23
I1
sg24
I0
sbssg25
S'\xd8\x9c\x1f\xbeC\x0f{\xcc\x8d\xdd\xc0T\xd3\xa9\x1f\xe7'
p816
ssS'scraper___init__'
p817
(dp818
g6
(dp819
g8
S'scraper___init__.html'
p820
sg10
S'scraper/__init__'
p821
sg12
g13
(g14
g15
NtRp822
(dp823
g18
I1
sg19
I0
sg20
I0
sg21
I0
sg22
I0
sg23
I0
sg24
I0
sbssg25
S'\xca\xf5\x9f\x7f\x88\xdfa\x831|T\x1d\xbc}\xa5v'
p824
ssS'apps_eventbrite_tests'
p825
(dp826
g6
(dp827
g8
S'apps_eventbrite_tests.html'
p828
sg10
S'apps/eventbrite/tests'
p829
sg12
g13
(g14
g15
NtRp830
(dp831
g18
I1
sg19
I0
sg20
I1
sg21
I0
sg22
I0
sg23
I0
sg24
I0
sbssg25
S'\x18\xa2\xf7\x81\x94\xb4%\xa4\xfaT\xb8\x84>\xb2\xf3b'
p832
ssS'scraper_admin'
p833
(dp834
g6
(dp835
g8
S'scraper_admin.html'
p836
sg10
S'scraper/admin'
p837
sg12
g13
(g14
g15
NtRp838
(dp839
g18
I1
sg19
I0
sg20
I3
sg21
I0
sg22
I0
sg23
I0
sg24
I0
sbssg25
S"\xd1\xefl\xe1'\xcf\xf0M-\x7f&\n\x84\xde\xb1\x11"
p840
ssS'scraper_spiders_sfgate_tech'
p841
(dp842
g6
(dp843
g8
S'scraper_spiders_sfgate_tech.html'
p844
sg10
S'scraper/spiders/sfgate_tech'
p845
sg12
g13
(g14
g15
NtRp846
(dp847
g18
I1
sg19
I0
sg20
I22
sg21
I0
sg22
I0
sg23
I22
sg24
I0
sbssg25
S'\xba\xb3\xd5E\xe9\xca\xd7\xef\xcd\t\t\xa1\x1d\xb7J\xb7'
p848
ssS'apps_meetup_tests'
p849
(dp850
g6
(dp851
g8
S'apps_meetup_tests.html'
p852
sg10
S'apps/meetup/tests'
p853
sg12
g13
(g14
g15
NtRp854
(dp855
g18
I1
sg19
I0
sg20
I1
sg21
I0
sg22
I0
sg23
I0
sg24
I0
sbssg25
S'\x18\xa2\xf7\x81\x94\xb4%\xa4\xfaT\xb8\x84>\xb2\xf3b'
p856
ssS'apps_contact_admin'
p857
(dp858
g6
(dp859
g8
S'apps_contact_admin.html'
p860
sg10
S'apps/contact/admin'
p861
sg12
g13
(g14
g15
NtRp862
(dp863
g18
I1
sg19
I0
sg20
I1
sg21
I0
sg22
I0
sg23
I1
sg24
I0
sbssg25
S"\xa6\x8e\x88=\x91\xca\x9f\xe0\xefM'\xc8.\xaf\x9d\xf7"
p864
ssS'settings___init__'
p865
(dp866
g6
(dp867
g8
S'settings___init__.html'
p868
sg10
S'settings/__init__'
p869
sg12
g13
(g14
g15
NtRp870
(dp871
g18
I1
sg19
I0
sg20
I5
sg21
I0
sg22
I0
sg23
I2
sg24
I0
sbssg25
S'+\x00C\x0e\xf8\xb1|\x91\xeb&U\xb8]\x10\x86G'
p872
ssS'apps_events_views'
p873
(dp874
g6
(dp875
g8
S'apps_events_views.html'
p876
sg10
S'apps/events/views'
p877
sg12
g13
(g14
g15
NtRp878
(dp879
g18
I1
sg19
I0
sg20
I3
sg21
I0
sg22
I0
sg23
I1
sg24
I0
sbssg25
S'\x8a\xa2of\xb4.J\xda\xbfN\xd4$\x93\xba\x96\x85'
p880
ssS'scraper_migrations_0002_auto__add_scraper'
p881
(dp882
g6
(dp883
g8
S'scraper_migrations_0002_auto__add_scraper.html'
p884
sg10
S'scraper/migrations/0002_auto__add_scraper'
p885
sg12
g13
(g14
g15
NtRp886
(dp887
g18
I1
sg19
I0
sg20
I12
sg21
I0
sg22
I0
sg23
I1
sg24
I0
sbssg25
S'#\x88\xfe\xfb%\xce4\x99\xdd\x88\xf9F\xbd>\xa1\xb5'
p888
ssS'apps_contact_models'
p889
(dp890
g6
(dp891
g8
S'apps_contact_models.html'
p892
sg10
S'apps/contact/models'
p893
sg12
g13
(g14
g15
NtRp894
(dp895
g18
I1
sg19
I0
sg20
I1
sg21
I0
sg22
I0
sg23
I1
sg24
I0
sbssg25
S'\xe8\xbb\xe4\x02\xdf\xb2\x9d\xe5Wp\xf7\xdb\x84|\x8ef'
p896
ssS'apps_contact_forms'
p897
(dp898
g6
(dp899
g8
S'apps_contact_forms.html'
p900
sg10
S'apps/contact/forms'
p901
sg12
g13
(g14
g15
NtRp902
(dp903
g18
I1
sg19
I0
sg20
I13
sg21
I0
sg22
I0
sg23
I3
sg24
I0
sbssg25
S'\xd1\xf0\xd7\xc3\x05d\xb5K\xb6\x12\x089\xc6\x82\xa3J'
p904
ssS'apps_profiles_admin'
p905
(dp906
g6
(dp907
g8
S'apps_profiles_admin.html'
p908
sg10
S'apps/profiles/admin'
p909
sg12
g13
(g14
g15
NtRp910
(dp911
g18
I1
sg19
I0
sg20
I13
sg21
I0
sg22
I0
sg23
I0
sg24
I0
sbssg25
S'7\xdfY\x11\xa2\xb6\x94\xaf\xd6\xdeh\xe7\xa5\x96\x1dx'
p912
ssS'apps_eventbrite_management___init__'
p913
(dp914
g6
(dp915
g8
S'apps_eventbrite_management___init__.html'
p916
sg10
S'apps/eventbrite/management/__init__'
p917
sg12
g13
(g14
g15
NtRp918
(dp919
g18
I1
sg19
I0
sg20
I1
sg21
I0
sg22
I0
sg23
I0
sg24
I0
sbssg25
S'\x9a\x9fs\xec/"\xa2\x1c\xad|\xb3\xfb3\xbc\xb9\xa4'
p920
ssS'apps_eventbrite_migrations_0004_auto__chg_field_eventbriteevent_event_title'
p921
(dp922
g6
(dp923
g8
S'apps_eventbrite_migrations_0004_auto__chg_field_eventbriteevent_event_title.html'
p924
sg10
S'apps/eventbrite/migrations/0004_auto__chg_field_eventbriteevent_event_title'
p925
sg12
g13
(g14
g15
NtRp926
(dp927
g18
I1
sg19
I0
sg20
I11
sg21
I0
sg22
I0
sg23
I1
sg24
I0
sbssg25
S'sG\x9b\xfd\xdehA\x90\xf7\xb4\xbc\xffj\xd2;\xbe'
p928
ssS'apps_eventbrite_admin'
p929
(dp930
g6
(dp931
g8
S'apps_eventbrite_admin.html'
p932
sg10
S'apps/eventbrite/admin'
p933
sg12
g13
(g14
g15
NtRp934
(dp935
g18
I1
sg19
I0
sg20
I1
sg21
I0
sg22
I0
sg23
I0
sg24
I0
sbssg25
S'\xd4\xe9\x8c\x82\x9c\xa2eU\x87h\x8b\xbe!-\xe2\xdf'
p936
ssS'scraper_migrations_0003_auto__chg_field_scraper_title_content'
p937
(dp938
g6
(dp939
g8
S'scraper_migrations_0003_auto__chg_field_scraper_title_content.html'
p940
sg10
S'scraper/migrations/0003_auto__chg_field_scraper_title_content'
p941
sg12
g13
(g14
g15
NtRp942
(dp943
g18
I1
sg19
I0
sg20
I11
sg21
I0
sg22
I0
sg23
I1
sg24
I0
sbssg25
S'a\x0c!ub\xa0\xb6\x9f<\xfde\xbe\xf6wL>'
p944
ssS'apps_contact_tests'
p945
(dp946
g6
(dp947
g8
S'apps_contact_tests.html'
p948
sg10
S'apps/contact/tests'
p949
sg12
g13
(g14
g15
NtRp950
(dp951
g18
I1
sg19
I0
sg20
I1
sg21
I0
sg22
I0
sg23
I0
sg24
I0
sbssg25
S'\x18\xa2\xf7\x81\x94\xb4%\xa4\xfaT\xb8\x84>\xb2\xf3b'
p952
ssS'apps_contact___init__'
p953
(dp954
g6
(dp955
g8
S'apps_contact___init__.html'
p956
sg10
S'apps/contact/__init__'
p957
sg12
g13
(g14
g15
NtRp958
(dp959
g18
I1
sg19
I0
sg20
I0
sg21
I0
sg22
I0
sg23
I0
sg24
I0
sbssg25
S'\xca\xf5\x9f\x7f\x88\xdfa\x831|T\x1d\xbc}\xa5v'
p960
ssS'apps_meetup_migrations_0012_auto__add_field_event_scrapy_event_url'
p961
(dp962
g6
(dp963
g8
S'apps_meetup_migrations_0012_auto__add_field_event_scrapy_event_url.html'
p964
sg10
S'apps/meetup/migrations/0012_auto__add_field_event_scrapy_event_url'
p965
sg12
g13
(g14
g15
NtRp966
(dp967
g18
I1
sg19
I0
sg20
I11
sg21
I0
sg22
I0
sg23
I1
sg24
I0
sbssg25
S'\xd5\xa1\xbc8w#\xac\x16b\xe2\xe5\x15\xd5\xba\xe2\xf1'
p968
ssS'apps_eventbrite_management_commands___init__'
p969
(dp970
g6
(dp971
g8
S'apps_eventbrite_management_commands___init__.html'
p972
sg10
S'apps/eventbrite/management/commands/__init__'
p973
sg12
g13
(g14
g15
NtRp974
(dp975
g18
I1
sg19
I0
sg20
I1
sg21
I0
sg22
I0
sg23
I1
sg24
I0
sbssg25
S'\x8c\xe7s\x12?<\x86\xdb\xa1BE\xbdS\xfb\x91>'
p976
ssS'apps_meetup_models'
p977
(dp978
g6
(dp979
g8
S'apps_meetup_models.html'
p980
sg10
S'apps/meetup/models'
p981
sg12
g13
(g14
g15
NtRp982
(dp983
g18
I1
sg19
I0
sg20
I46
sg21
I0
sg22
I0
sg23
I1
sg24
I0
sbssg25
S'\xc6\xf9\xae\xd0\xd5O\x87\xb1\xec\x9c+\x14\xf4m9\x8e'
p984
ssS'apps_events___init__'
p985
(dp986
g6
(dp987
g8
S'apps_events___init__.html'
p988
sg10
S'apps/events/__init__'
p989
sg12
g13
(g14
g15
NtRp990
(dp991
g18
I1
sg19
I0
sg20
I0
sg21
I0
sg22
I0
sg23
I0
sg24
I0
sbssg25
S'\xca\xf5\x9f\x7f\x88\xdfa\x831|T\x1d\xbc}\xa5v'
p992
ssS'scraper_management___init__'
p993
(dp994
g6
(dp995
g8
S'scraper_management___init__.html'
p996
sg10
S'scraper/management/__init__'
p997
sg12
g13
(g14
g15
NtRp998
(dp999
g18
I1
sg19
I0
sg20
I1
sg21
I0
sg22
I0
sg23
I0
sg24
I0
sbssg25
S'\x9a\x9fs\xec/"\xa2\x1c\xad|\xb3\xfb3\xbc\xb9\xa4'
p1000
ssS'apps_meetup_search_indexes'
p1001
(dp1002
g6
(dp1003
g8
S'apps_meetup_search_indexes.html'
p1004
sg10
S'apps/meetup/search_indexes'
p1005
sg12
g13
(g14
g15
NtRp1006
(dp1007
g18
I1
sg19
I0
sg20
I16
sg21
I0
sg22
I0
sg23
I16
sg24
I0
sbssg25
S'\xb1\x01\x1b\x82\xbd"\xf2\x9aM\xf1\x94\x07\xb3\xc1\xf9\x9a'
p1008
ssS'scraper_pipelines'
p1009
(dp1010
g6
(dp1011
g8
S'scraper_pipelines.html'
p1012
sg10
S'scraper/pipelines'
p1013
sg12
g13
(g14
g15
NtRp1014
(dp1015
g18
I1
sg19
I0
sg20
I10
sg21
I0
sg22
I0
sg23
I10
sg24
I0
sbssg25
S'pV\xcd\xd7g\x90\xff\x8e\xcc\xf3\xcc:N\x8a\xd4\xb1'
p1016
ssS'apps_maps_views'
p1017
(dp1018
g6
(dp1019
g8
S'apps_maps_views.html'
p1020
sg10
S'apps/maps/views'
p1021
sg12
g13
(g14
g15
NtRp1022
(dp1023
g18
I1
sg19
I0
sg20
I10
sg21
I0
sg22
I0
sg23
I4
sg24
I0
sbssg25
S'\xdb\x1f\xa0\xaaa\xbe\xb7\rx\xce\x8bQ\x83\x04\xfa\xc6'
p1024
ssS'apps_maps_models'
p1025
(dp1026
g6
(dp1027
g8
S'apps_maps_models.html'
p1028
sg10
S'apps/maps/models'
p1029
sg12
g13
(g14
g15
NtRp1030
(dp1031
g18
I1
sg19
I0
sg20
I1
sg21
I0
sg22
I0
sg23
I1
sg24
I0
sbssg25
S'\xe8\xbb\xe4\x02\xdf\xb2\x9d\xe5Wp\xf7\xdb\x84|\x8ef'
p1032
ssS'settings_test_settings'
p1033
(dp1034
g6
(dp1035
g8
S'settings_test_settings.html'
p1036
sg10
S'settings/test_settings'
p1037
sg12
g13
(g14
g15
NtRp1038
(dp1039
g18
I1
sg19
I0
sg20
I10
sg21
I0
sg22
I0
sg23
I0
sg24
I0
sbssg25
S'\xac\x0b\x0b\xc5W\x1a\xba\x15S\xb4\x05\xfdo\xa8\xdbt'
p1040
sssS'version'
p1041
S'3.7.1'
p1042
sS'settings'
p1043
S'\x98\xa8x\xfe"r\xb5K\x98\xb1N\\\x99\x9e\xf3\xe5'
p1044
sS'format'
p1045
I1
s.